(dp0
S'dat'
p1
(dp2
S'pg244.txt'
p3
S'Doyle'
p4
sS'pg834.txt'
p5
S'Doyle'
p6
sS'pg2852.txt'
p7
S'Doyle'
p8
sS'pg1342.txt'
p9
S'Austen'
p10
sS'pg2701.txt'
p11
S'Melville'
p12
ssS'dir'
p13
S'texts'
p14
s.