(dp0
S'dat'
p1
(dp2
S'pg834.txt'
p3
S'Doyle'
p4
sS'pg2852.txt'
p5
S'Doyle'
p6
sS'pg1342.txt'
p7
S'Austen'
p8
sS'pg2701.txt'
p9
S'Melville'
p10
sS'pg11231.txt'
p11
S'Melville'
p12
sS'pg244.txt'
p13
S'Doyle'
p14
ssS'dir'
p15
S'texts'
p16
s.